target datalayout = "e-m:e-p270:32:32-p271:32:32-p272:64:64-i64:64-i128:128-f80:128-n8:16:32:64-S128"
target triple = "x86_64-pc-linux-gnu"

; Function Attrs: mustprogress uwtable
define hidden void @_ZN2cv11bioinspired12RetinaFilter18runGrayToneMappingERKSt8valarrayIfERS3_ff(ptr noundef nonnull align 8 dereferenceable(1217) %0, ptr noundef nonnull align 8 dereferenceable(16) %1, ptr noundef nonnull align 8 dereferenceable(16) %2, float noundef %3, float noundef %4) #4 align 2 {
  %6 = alloca ptr, align 8
  %7 = alloca ptr, align 8
  %8 = alloca ptr, align 8
  %9 = alloca float, align 4
  %10 = alloca float, align 4
  store ptr %0, ptr %6, align 8, !tbaa !3
  store ptr %1, ptr %7, align 8, !tbaa !38
  store ptr %2, ptr %8, align 8, !tbaa !38
  store float %3, ptr %9, align 4, !tbaa !48
  store float %4, ptr %10, align 4, !tbaa !48
  %11 = load ptr, ptr %6, align 8
  %12 = load ptr, ptr %7, align 8, !tbaa !38
  %13 = call noundef zeroext i1 @_ZN2cv11bioinspired12RetinaFilter10checkInputERKSt8valarrayIfEb(ptr noundef nonnull align 8 dereferenceable(1217) %11, ptr noundef nonnull align 8 dereferenceable(16) %12, i1 noundef zeroext false)
  br i1 %13, label %15, label %14

14:                                               ; preds = %5
  br label %20

15:                                               ; preds = %5
  %16 = load ptr, ptr %7, align 8, !tbaa !38
  %17 = load ptr, ptr %8, align 8, !tbaa !38
  %18 = load float, ptr %9, align 4, !tbaa !48
  %19 = load float, ptr %10, align 4, !tbaa !48
  call void @_ZN2cv11bioinspired12RetinaFilter19_runGrayToneMappingERKSt8valarrayIfERS3_ff(ptr noundef nonnull align 8 dereferenceable(1217) %11, ptr noundef nonnull align 8 dereferenceable(16) %16, ptr noundef nonnull align 8 dereferenceable(16) %17, float noundef %18, float noundef %19)
  br label %20

20:                                               ; preds = %15, %14
  ret void
}