; Function Attrs: mustprogress uwtable
define hidden void @_ZN2cv11bioinspired12RetinaFilter18runGrayToneMappingERKSt8valarrayIfERS3_ff(ptr noundef nonnull align 8 dereferenceable(1217) %0, ptr noundef nonnull align 8 dereferenceable(16) %1, ptr noundef nonnull align 8 dereferenceable(16) %2, float noundef %3, float noundef %4) local_unnamed_addr #3 align 2 {
  %6 = tail call noundef zeroext i1 @_ZN2cv11bioinspired12RetinaFilter10checkInputERKSt8valarrayIfEb(ptr noundef nonnull align 8 dereferenceable(1217) %0, ptr noundef nonnull align 8 dereferenceable(16) %1, i1 zeroext poison)
  br i1 %6, label %7, label %8

7:                                                ; preds = %5
  tail call void @_ZN2cv11bioinspired12RetinaFilter19_runGrayToneMappingERKSt8valarrayIfERS3_ff(ptr noundef nonnull align 8 dereferenceable(1217) %0, ptr noundef nonnull align 8 dereferenceable(16) %1, ptr noundef nonnull align 8 dereferenceable(16) %2, float noundef %3, float noundef %4)
  br label %8

8:                                                ; preds = %5, %7
  ret void
}